target datalayout = "e-m:e-p270:32:32-p271:32:32-p272:64:64-i64:64-i128:128-f80:128-n8:16:32:64-S128"
target triple = "x86_64-pc-linux-gnu"

%struct.AVFormatContext = type { ptr, ptr, ptr, ptr, ptr, i32, i32, ptr, i32, ptr, i32, ptr, ptr, i64, i64, i64, i32, i32, i32, i64, i64, ptr, i32, i32, ptr, i32, i32, i32, i32, ptr, i64, i32, i32, %struct.AVIOInterruptCB, i32, i32, i32, i32, i64, i32, i32, i32, i32, i32, i32, i32, i32, i32, i32, i32, i32, i64, i32, i32, i32, i32, i32, ptr, ptr, ptr, ptr, i32, ptr, ptr, ptr, ptr, i32, ptr, ptr, i64, ptr, ptr, ptr, i64 }
%struct.AVIOInterruptCB = type { ptr, ptr }
%struct.AUDMuxContext = type { i32, i32 }
%struct.AVPacket = type { ptr, i64, i64, ptr, i32, i32, i32, ptr, i32, i64, i64, ptr, ptr, %struct.AVRational }
%struct.AVRational = type { i32, i32 }

; Function Attrs: nounwind uwtable
define internal i32 @wsaud_write_packet(ptr noundef %0, ptr noundef %1) #0 {
  %3 = alloca i32, align 4
  %4 = alloca ptr, align 8
  %5 = alloca ptr, align 8
  %6 = alloca ptr, align 8
  %7 = alloca ptr, align 8
  %8 = alloca i32, align 4
  store ptr %0, ptr %4, align 8, !tbaa !4
  store ptr %1, ptr %5, align 8, !tbaa !49
  call void @llvm.lifetime.start.p0(i64 8, ptr %6) #3
  %9 = load ptr, ptr %4, align 8, !tbaa !4
  %10 = getelementptr inbounds nuw %struct.AVFormatContext, ptr %9, i32 0, i32 4
  %11 = load ptr, ptr %10, align 8, !tbaa !28
  store ptr %11, ptr %6, align 8, !tbaa !29
  call void @llvm.lifetime.start.p0(i64 8, ptr %7) #3
  %12 = load ptr, ptr %4, align 8, !tbaa !4
  %13 = getelementptr inbounds nuw %struct.AVFormatContext, ptr %12, i32 0, i32 3
  %14 = load ptr, ptr %13, align 8, !tbaa !30
  store ptr %14, ptr %7, align 8, !tbaa !31
  %15 = load ptr, ptr %5, align 8, !tbaa !49
  %16 = getelementptr inbounds nuw %struct.AVPacket, ptr %15, i32 0, i32 4
  %17 = load i32, ptr %16, align 8, !tbaa !51
  %18 = icmp sgt i32 %17, 16383
  br i1 %18, label %19, label %20

19:                                               ; preds = %2
  store i32 -1094995529, ptr %3, align 4
  store i32 1, ptr %8, align 4
  br label %54

20:                                               ; preds = %2
  %21 = load ptr, ptr %6, align 8, !tbaa !29
  %22 = load ptr, ptr %5, align 8, !tbaa !49
  %23 = getelementptr inbounds nuw %struct.AVPacket, ptr %22, i32 0, i32 4
  %24 = load i32, ptr %23, align 8, !tbaa !51
  call void @avio_wl16(ptr noundef %21, i32 noundef %24)
  %25 = load ptr, ptr %6, align 8, !tbaa !29
  %26 = load ptr, ptr %5, align 8, !tbaa !49
  %27 = getelementptr inbounds nuw %struct.AVPacket, ptr %26, i32 0, i32 4
  %28 = load i32, ptr %27, align 8, !tbaa !51
  %29 = mul nsw i32 %28, 4
  call void @avio_wl16(ptr noundef %25, i32 noundef %29)
  %30 = load ptr, ptr %6, align 8, !tbaa !29
  call void @avio_wl32(ptr noundef %30, i32 noundef 57007)
  %31 = load ptr, ptr %6, align 8, !tbaa !29
  %32 = load ptr, ptr %5, align 8, !tbaa !49
  %33 = getelementptr inbounds nuw %struct.AVPacket, ptr %32, i32 0, i32 3
  %34 = load ptr, ptr %33, align 8, !tbaa !52
  %35 = load ptr, ptr %5, align 8, !tbaa !49
  %36 = getelementptr inbounds nuw %struct.AVPacket, ptr %35, i32 0, i32 4
  %37 = load i32, ptr %36, align 8, !tbaa !51
  call void @avio_write(ptr noundef %31, ptr noundef %34, i32 noundef %37)
  %38 = load ptr, ptr %5, align 8, !tbaa !49
  %39 = getelementptr inbounds nuw %struct.AVPacket, ptr %38, i32 0, i32 4
  %40 = load i32, ptr %39, align 8, !tbaa !51
  %41 = add nsw i32 %40, 8
  %42 = load ptr, ptr %7, align 8, !tbaa !31
  %43 = getelementptr inbounds nuw %struct.AUDMuxContext, ptr %42, i32 0, i32 1
  %44 = load i32, ptr %43, align 4, !tbaa !36
  %45 = add nsw i32 %44, %41
  store i32 %45, ptr %43, align 4, !tbaa !36
  %46 = load ptr, ptr %5, align 8, !tbaa !49
  %47 = getelementptr inbounds nuw %struct.AVPacket, ptr %46, i32 0, i32 4
  %48 = load i32, ptr %47, align 8, !tbaa !51
  %49 = mul nsw i32 %48, 4
  %50 = load ptr, ptr %7, align 8, !tbaa !31
  %51 = getelementptr inbounds nuw %struct.AUDMuxContext, ptr %50, i32 0, i32 0
  %52 = load i32, ptr %51, align 4, !tbaa !34
  %53 = add nsw i32 %52, %49
  store i32 %53, ptr %51, align 4, !tbaa !34
  store i32 0, ptr %3, align 4
  store i32 1, ptr %8, align 4
  br label %54

54:                                               ; preds = %20, %19
  call void @llvm.lifetime.end.p0(i64 8, ptr %7) #3
  call void @llvm.lifetime.end.p0(i64 8, ptr %6) #3
  %55 = load i32, ptr %3, align 4
  ret i32 %55
}