; Function Attrs: nounwind uwtable
define internal range(i32 -1094995529, 1) i32 @wsaud_write_packet(ptr noundef readonly captures(none) %0, ptr noundef readonly captures(none) %1) #0 {
  %3 = getelementptr inbounds nuw i8, ptr %1, i64 32
  %4 = load i32, ptr %3, align 8, !tbaa !43
  %5 = icmp sgt i32 %4, 16383
  br i1 %5, label %24, label %6

6:                                                ; preds = %2
  %7 = getelementptr inbounds nuw i8, ptr %0, i64 24
  %8 = load ptr, ptr %7, align 8, !tbaa !27
  %9 = getelementptr inbounds nuw i8, ptr %0, i64 32
  %10 = load ptr, ptr %9, align 8, !tbaa !26
  tail call void @avio_wl16(ptr noundef %10, i32 noundef %4) #2
  %11 = load i32, ptr %3, align 8, !tbaa !43
  %12 = shl nsw i32 %11, 2
  tail call void @avio_wl16(ptr noundef %10, i32 noundef %12) #2
  tail call void @avio_wl32(ptr noundef %10, i32 noundef 57007) #2
  %13 = getelementptr inbounds nuw i8, ptr %1, i64 24
  %14 = load ptr, ptr %13, align 8, !tbaa !44
  %15 = load i32, ptr %3, align 8, !tbaa !43
  tail call void @avio_write(ptr noundef %10, ptr noundef %14, i32 noundef %15) #2
  %16 = load i32, ptr %3, align 8, !tbaa !43
  %17 = add nsw i32 %16, 8
  %18 = getelementptr inbounds nuw i8, ptr %8, i64 4
  %19 = load i32, ptr %18, align 4, !tbaa !30
  %20 = add nsw i32 %17, %19
  store i32 %20, ptr %18, align 4, !tbaa !30
  %21 = shl nsw i32 %16, 2
  %22 = load i32, ptr %8, align 4, !tbaa !28
  %23 = add nsw i32 %22, %21
  store i32 %23, ptr %8, align 4, !tbaa !28
  br label %24

24:                                               ; preds = %2, %6
  %.0 = phi i32 [ 0, %6 ], [ -1094995529, %2 ]
  ret i32 %.0
}